; Function Attrs: nounwind uwtable
define ptr @l_Lean_Elab_Tactic_BVDecide_Frontend_Normalize_Op_toExpr(ptr noundef %0) local_unnamed_addr #0 {
  %2 = ptrtoint ptr %0 to i64
  %3 = and i64 %2, 1
  %.not = icmp eq i64 %3, 0
  br i1 %.not, label %4, label %lean_inc.exit

4:                                                ; preds = %1
  %.val.i = load i32, ptr %0, align 4, !tbaa !8
  %5 = icmp sgt i32 %.val.i, 0
  br i1 %5, label %6, label %8, !prof !11

6:                                                ; preds = %4
  %7 = add nuw i32 %.val.i, 1
  store i32 %7, ptr %0, align 4, !tbaa !8
  br label %12

8:                                                ; preds = %4
  %.not.i = icmp eq i32 %.val.i, 0
  br i1 %.not.i, label %12, label %9

9:                                                ; preds = %8
  tail call void @lean_inc_ref_cold(ptr noundef nonnull %0) #5
  br label %12

lean_inc.exit:                                    ; preds = %1
  %10 = load ptr, ptr @l_Lean_Elab_Tactic_BVDecide_Frontend_Normalize_BitVec_mkType___closed__3, align 8, !tbaa !4
  %11 = tail call ptr @l_Lean_Expr_app___override(ptr noundef %10, ptr noundef %0) #5
  br label %l_Lean_Elab_Tactic_BVDecide_Frontend_Normalize_BitVec_mkInstHMul.exit

12:                                               ; preds = %9, %8, %6
  %13 = load ptr, ptr @l_Lean_Elab_Tactic_BVDecide_Frontend_Normalize_BitVec_mkType___closed__3, align 8, !tbaa !4
  %14 = tail call ptr @l_Lean_Expr_app___override(ptr noundef %13, ptr noundef nonnull %0) #5
  %.val.i.i = load i32, ptr %0, align 4, !tbaa !8
  %15 = icmp sgt i32 %.val.i.i, 0
  br i1 %15, label %16, label %18, !prof !11

16:                                               ; preds = %12
  %17 = add nuw i32 %.val.i.i, 1
  store i32 %17, ptr %0, align 4, !tbaa !8
  br label %l_Lean_Elab_Tactic_BVDecide_Frontend_Normalize_BitVec_mkInstHMul.exit

18:                                               ; preds = %12
  %.not.i.i = icmp eq i32 %.val.i.i, 0
  br i1 %.not.i.i, label %l_Lean_Elab_Tactic_BVDecide_Frontend_Normalize_BitVec_mkInstHMul.exit, label %19

19:                                               ; preds = %18
  tail call void @lean_inc_ref_cold(ptr noundef nonnull %0) #5
  br label %l_Lean_Elab_Tactic_BVDecide_Frontend_Normalize_BitVec_mkInstHMul.exit

l_Lean_Elab_Tactic_BVDecide_Frontend_Normalize_BitVec_mkInstHMul.exit: ; preds = %lean_inc.exit, %16, %18, %19
  %20 = phi ptr [ %11, %lean_inc.exit ], [ %14, %16 ], [ %14, %18 ], [ %14, %19 ]
  %21 = load ptr, ptr @l_Lean_Elab_Tactic_BVDecide_Frontend_Normalize_BitVec_mkType___closed__3, align 8, !tbaa !4
  %22 = tail call ptr @l_Lean_Expr_app___override(ptr noundef %21, ptr noundef %0) #5
  %23 = load ptr, ptr @l_Lean_Elab_Tactic_BVDecide_Frontend_Normalize_BitVec_mkInstMul___closed__3, align 8, !tbaa !4
  %24 = tail call ptr @l_Lean_Expr_app___override(ptr noundef %23, ptr noundef %0) #5
  %25 = load ptr, ptr @l_Lean_Elab_Tactic_BVDecide_Frontend_Normalize_BitVec_mkInstHMul___closed__4, align 8, !tbaa !4
  %26 = tail call ptr @l_Lean_mkAppB(ptr noundef %25, ptr noundef %22, ptr noundef %24) #5
  %27 = load ptr, ptr @l_Lean_Elab_Tactic_BVDecide_Frontend_Normalize_Op_toExpr___closed__5, align 8, !tbaa !4
  %28 = ptrtoint ptr %20 to i64
  %29 = and i64 %28, 1
  %.not.i11 = icmp eq i64 %29, 0
  br i1 %.not.i11, label %30, label %lean_inc_n.exit

30:                                               ; preds = %l_Lean_Elab_Tactic_BVDecide_Frontend_Normalize_BitVec_mkInstHMul.exit
  %.val.i.i12 = load i32, ptr %20, align 4, !tbaa !8
  %31 = icmp sgt i32 %.val.i.i12, 0
  br i1 %31, label %32, label %34, !prof !11

32:                                               ; preds = %30
  %33 = add nuw i32 %.val.i.i12, 2
  store i32 %33, ptr %20, align 4, !tbaa !8
  br label %lean_inc_n.exit

34:                                               ; preds = %30
  %.not.i.i13 = icmp eq i32 %.val.i.i12, 0
  br i1 %.not.i.i13, label %lean_inc_n.exit, label %35

35:                                               ; preds = %34
  tail call void @lean_inc_ref_n_cold(ptr noundef nonnull %20, i32 noundef 2) #5
  br label %lean_inc_n.exit

lean_inc_n.exit:                                  ; preds = %l_Lean_Elab_Tactic_BVDecide_Frontend_Normalize_BitVec_mkInstHMul.exit, %32, %34, %35
  %36 = tail call ptr @l_Lean_mkApp4(ptr noundef %27, ptr noundef %20, ptr noundef %20, ptr noundef %20, ptr noundef %26) #5
  ret ptr %36
}